target datalayout = "e-m:e-p270:32:32-p271:32:32-p272:64:64-i64:64-i128:128-f80:128-n8:16:32:64-S128"
target triple = "x86_64-unknown-linux-gnu"

%"class.std::vector" = type { %"struct.std::_Vector_base" }
%"struct.std::_Vector_base" = type { %"struct.std::_Vector_base<unsigned long, std::allocator<unsigned long>>::_Vector_impl" }
%"struct.std::_Vector_base<unsigned long, std::allocator<unsigned long>>::_Vector_impl" = type { %"struct.std::_Vector_base<unsigned long, std::allocator<unsigned long>>::_Vector_impl_data" }
%"struct.std::_Vector_base<unsigned long, std::allocator<unsigned long>>::_Vector_impl_data" = type { ptr, ptr, ptr }
%"class.QuantLib::FdmLinearOpLayout" = type { i64, %"class.std::vector", %"class.std::vector" }
%"class.QuantLib::TripleBandLinearOp" = type { %"class.QuantLib::FdmLinearOp", i64, %"class.std::unique_ptr", %"class.std::unique_ptr", %"class.std::unique_ptr", %"class.std::unique_ptr.2", %"class.std::unique_ptr.2", %"class.std::unique_ptr.2", %"class.boost::shared_ptr" }
%"class.QuantLib::FdmLinearOp" = type { ptr }
%"class.std::unique_ptr" = type { %"struct.std::__uniq_ptr_data" }
%"struct.std::__uniq_ptr_data" = type { %"class.std::__uniq_ptr_impl" }
%"class.std::__uniq_ptr_impl" = type { %"class.std::tuple" }
%"class.std::tuple" = type { %"struct.std::_Tuple_impl" }
%"struct.std::_Tuple_impl" = type { %"struct.std::_Head_base.1" }
%"struct.std::_Head_base.1" = type { ptr }
%"class.std::unique_ptr.2" = type { %"struct.std::__uniq_ptr_data.3" }
%"struct.std::__uniq_ptr_data.3" = type { %"class.std::__uniq_ptr_impl.4" }
%"class.std::__uniq_ptr_impl.4" = type { %"class.std::tuple.5" }
%"class.std::tuple.5" = type { %"struct.std::_Tuple_impl.6" }
%"struct.std::_Tuple_impl.6" = type { %"struct.std::_Head_base.9" }
%"struct.std::_Head_base.9" = type { ptr }
%"class.boost::shared_ptr" = type { ptr, %"class.boost::detail::shared_count" }
%"class.boost::detail::shared_count" = type { ptr }
%"class.QuantLib::FdmMesher" = type { ptr, %"class.boost::shared_ptr.10" }
%"class.boost::shared_ptr.10" = type { ptr, %"class.boost::detail::shared_count" }
%"class.QuantLib::Array" = type { %"class.std::unique_ptr.2", i64 }

@.str.8 = private unnamed_addr constant [8 x i8] c"px != 0\00", align 1
@__PRETTY_FUNCTION__._ZNK5boost10shared_ptrIN8QuantLib9FdmMesherEEptEv = private unnamed_addr constant [135 x i8] c"typename boost::detail::sp_member_access<T>::type boost::shared_ptr<QuantLib::FdmMesher>::operator->() const [T = QuantLib::FdmMesher]\00", align 1
@.str.9 = private unnamed_addr constant [102 x i8] c"generated/home/dtcxzyw/WorkSpace/SDK/vcpkg/installed/x64-linux/include/boost/smart_ptr/shared_ptr.hpp\00", align 1
@__PRETTY_FUNCTION__._ZNK5boost10shared_ptrIN8QuantLib17FdmLinearOpLayoutEEptEv = private unnamed_addr constant [151 x i8] c"typename boost::detail::sp_member_access<T>::type boost::shared_ptr<QuantLib::FdmLinearOpLayout>::operator->() const [T = QuantLib::FdmLinearOpLayout]\00", align 1
@_ZN8QuantLib18TripleBandLinearOpC1EmRKN5boost10shared_ptrINS_9FdmMesherEEE = unnamed_addr alias void (ptr, i64, ptr), ptr @_ZN8QuantLib18TripleBandLinearOpC2EmRKN5boost10shared_ptrINS_9FdmMesherEEE

; Function Attrs: mustprogress nounwind uwtable
define linkonce_odr noundef nonnull align 8 dereferenceable(8) ptr @_ZNSt10_Head_baseILm0EPdLb0EE7_M_headERKS1_(ptr noundef nonnull align 8 dereferenceable(8) %__b) #6 comdat align 2 {
entry:
  %__b.addr = alloca ptr, align 8
  store ptr %__b, ptr %__b.addr, align 8, !tbaa !3
  %0 = load ptr, ptr %__b.addr, align 8, !tbaa !3
  %_M_head_impl = getelementptr inbounds nuw %"struct.std::_Head_base.9", ptr %0, i32 0, i32 0
  ret ptr %_M_head_impl
}

; Function Attrs: mustprogress nounwind uwtable
define linkonce_odr noundef nonnull align 8 dereferenceable(8) ptr @_ZNSt11_Tuple_implILm0EJPdSt14default_deleteIA_dEEE7_M_headERKS4_(ptr noundef nonnull align 8 dereferenceable(8) %__t) #6 comdat align 2 {
entry:
  %__t.addr = alloca ptr, align 8
  store ptr %__t, ptr %__t.addr, align 8, !tbaa !3
  %0 = load ptr, ptr %__t.addr, align 8, !tbaa !3
  %call = call noundef nonnull align 8 dereferenceable(8) ptr @_ZNSt10_Head_baseILm0EPdLb0EE7_M_headERKS1_(ptr noundef nonnull align 8 dereferenceable(8) %0) #3
  ret ptr %call
}

; Function Attrs: mustprogress nounwind uwtable
define linkonce_odr noundef nonnull align 8 dereferenceable(8) ptr @_ZSt12__get_helperILm0EPdJSt14default_deleteIA_dEEERKT0_RKSt11_Tuple_implIXT_EJS4_DpT1_EE(ptr noundef nonnull align 8 dereferenceable(8) %__t) #6 comdat {
entry:
  %__t.addr = alloca ptr, align 8
  store ptr %__t, ptr %__t.addr, align 8, !tbaa !3
  %0 = load ptr, ptr %__t.addr, align 8, !tbaa !3
  %call = call noundef nonnull align 8 dereferenceable(8) ptr @_ZNSt11_Tuple_implILm0EJPdSt14default_deleteIA_dEEE7_M_headERKS4_(ptr noundef nonnull align 8 dereferenceable(8) %0) #3
  ret ptr %call
}

; Function Attrs: mustprogress nounwind uwtable
define linkonce_odr noundef nonnull align 8 dereferenceable(8) ptr @_ZSt3getILm0EJPdSt14default_deleteIA_dEEERKNSt13tuple_elementIXT_ESt5tupleIJDpT0_EEE4typeERKS8_(ptr noundef nonnull align 8 dereferenceable(8) %__t) #6 comdat {
entry:
  %__t.addr = alloca ptr, align 8
  store ptr %__t, ptr %__t.addr, align 8, !tbaa !3
  %0 = load ptr, ptr %__t.addr, align 8, !tbaa !3
  %call = call noundef nonnull align 8 dereferenceable(8) ptr @_ZSt12__get_helperILm0EPdJSt14default_deleteIA_dEEERKT0_RKSt11_Tuple_implIXT_EJS4_DpT1_EE(ptr noundef nonnull align 8 dereferenceable(8) %0) #3
  ret ptr %call
}

; Function Attrs: mustprogress nounwind uwtable
define linkonce_odr noundef ptr @_ZNKSt15__uniq_ptr_implIdSt14default_deleteIA_dEE6_M_ptrEv(ptr noundef nonnull align 8 dereferenceable(8) %this) #6 comdat align 2 {
entry:
  %this.addr = alloca ptr, align 8
  store ptr %this, ptr %this.addr, align 8, !tbaa !3
  %this1 = load ptr, ptr %this.addr, align 8
  %_M_t = getelementptr inbounds nuw %"class.std::__uniq_ptr_impl.4", ptr %this1, i32 0, i32 0
  %call = call noundef nonnull align 8 dereferenceable(8) ptr @_ZSt3getILm0EJPdSt14default_deleteIA_dEEERKNSt13tuple_elementIXT_ESt5tupleIJDpT0_EEE4typeERKS8_(ptr noundef nonnull align 8 dereferenceable(8) %_M_t) #3
  %0 = load ptr, ptr %call, align 8, !tbaa !3
  ret ptr %0
}

; Function Attrs: mustprogress nounwind uwtable
define linkonce_odr noundef ptr @_ZNKSt10unique_ptrIA_dSt14default_deleteIS0_EE3getEv(ptr noundef nonnull align 8 dereferenceable(8) %this) #6 comdat align 2 {
entry:
  %this.addr = alloca ptr, align 8
  store ptr %this, ptr %this.addr, align 8, !tbaa !3
  %this1 = load ptr, ptr %this.addr, align 8
  %_M_t = getelementptr inbounds nuw %"class.std::unique_ptr.2", ptr %this1, i32 0, i32 0
  %call = call noundef ptr @_ZNKSt15__uniq_ptr_implIdSt14default_deleteIA_dEE6_M_ptrEv(ptr noundef nonnull align 8 dereferenceable(8) %_M_t) #3
  ret ptr %call
}

; Function Attrs: inlinehint mustprogress nounwind uwtable
define linkonce_odr noundef double @_ZNK8QuantLib5ArrayixEm(ptr noundef nonnull align 8 dereferenceable(16) %this, i64 noundef %i) #5 comdat align 2 {
entry:
  %this.addr = alloca ptr, align 8
  %i.addr = alloca i64, align 8
  store ptr %this, ptr %this.addr, align 8, !tbaa !3
  store i64 %i, ptr %i.addr, align 8, !tbaa !7
  %this1 = load ptr, ptr %this.addr, align 8
  %data_ = getelementptr inbounds nuw %"class.QuantLib::Array", ptr %this1, i32 0, i32 0
  %call = call noundef ptr @_ZNKSt10unique_ptrIA_dSt14default_deleteIS0_EE3getEv(ptr noundef nonnull align 8 dereferenceable(8) %data_) #3
  %0 = load i64, ptr %i.addr, align 8, !tbaa !7
  %arrayidx = getelementptr inbounds nuw double, ptr %call, i64 %0
  %1 = load double, ptr %arrayidx, align 8, !tbaa !46
  ret double %1
}

; Function Attrs: mustprogress nounwind uwtable
define linkonce_odr noundef nonnull align 8 dereferenceable(8) ptr @_ZNKSt10unique_ptrIA_dSt14default_deleteIS0_EEixEm(ptr noundef nonnull align 8 dereferenceable(8) %this, i64 noundef %__i) #6 comdat align 2 {
entry:
  %this.addr = alloca ptr, align 8
  %__i.addr = alloca i64, align 8
  store ptr %this, ptr %this.addr, align 8, !tbaa !3
  store i64 %__i, ptr %__i.addr, align 8, !tbaa !7
  %this1 = load ptr, ptr %this.addr, align 8
  br label %do.body

do.body:                                          ; preds = %entry
  br label %do.end

do.end:                                           ; preds = %do.body
  %call = call noundef ptr @_ZNKSt10unique_ptrIA_dSt14default_deleteIS0_EE3getEv(ptr noundef nonnull align 8 dereferenceable(8) %this1) #3
  %0 = load i64, ptr %__i.addr, align 8, !tbaa !7
  %arrayidx = getelementptr inbounds nuw double, ptr %call, i64 %0
  ret ptr %arrayidx
}

; Function Attrs: mustprogress nounwind uwtable
define linkonce_odr noundef i64 @_ZNK8QuantLib17FdmLinearOpLayout4sizeEv(ptr noundef nonnull align 8 dereferenceable(56) %this) #6 comdat align 2 {
entry:
  %this.addr = alloca ptr, align 8
  store ptr %this, ptr %this.addr, align 8, !tbaa !3
  %this1 = load ptr, ptr %this.addr, align 8
  %size_ = getelementptr inbounds nuw %"class.QuantLib::FdmLinearOpLayout", ptr %this1, i32 0, i32 0
  %0 = load i64, ptr %size_, align 8, !tbaa !31
  ret i64 %0
}

; Function Attrs: mustprogress uwtable
define linkonce_odr noundef ptr @_ZNK5boost10shared_ptrIN8QuantLib17FdmLinearOpLayoutEEptEv(ptr noundef nonnull align 8 dereferenceable(16) %this) #4 comdat align 2 {
entry:
  %this.addr = alloca ptr, align 8
  store ptr %this, ptr %this.addr, align 8, !tbaa !3
  %this1 = load ptr, ptr %this.addr, align 8
  %px = getelementptr inbounds nuw %"class.boost::shared_ptr.10", ptr %this1, i32 0, i32 0
  %0 = load ptr, ptr %px, align 8, !tbaa !29
  %cmp = icmp ne ptr %0, null
  %lnot = xor i1 %cmp, true
  %lnot2 = xor i1 %lnot, true
  %conv = zext i1 %lnot2 to i64
  %expval = call i64 @llvm.expect.i64(i64 %conv, i64 1)
  %tobool = icmp ne i64 %expval, 0
  br i1 %tobool, label %cond.true, label %cond.false

cond.true:                                        ; preds = %entry
  br label %cond.end

cond.false:                                       ; preds = %entry
  call void @_ZN5boost16assertion_failedEPKcS1_S1_l(ptr noundef @.str.8, ptr noundef @__PRETTY_FUNCTION__._ZNK5boost10shared_ptrIN8QuantLib17FdmLinearOpLayoutEEptEv, ptr noundef @.str.9, i64 noundef 784)
  br label %cond.end

cond.end:                                         ; preds = %cond.false, %cond.true
  %px3 = getelementptr inbounds nuw %"class.boost::shared_ptr.10", ptr %this1, i32 0, i32 0
  %1 = load ptr, ptr %px3, align 8, !tbaa !29
  ret ptr %1
}

; Function Attrs: mustprogress nounwind uwtable
define linkonce_odr noundef nonnull align 8 dereferenceable(16) ptr @_ZNK8QuantLib9FdmMesher6layoutEv(ptr noundef nonnull align 8 dereferenceable(24) %this) #6 comdat align 2 {
entry:
  %this.addr = alloca ptr, align 8
  store ptr %this, ptr %this.addr, align 8, !tbaa !3
  %this1 = load ptr, ptr %this.addr, align 8
  %layout_ = getelementptr inbounds nuw %"class.QuantLib::FdmMesher", ptr %this1, i32 0, i32 1
  ret ptr %layout_
}

; Function Attrs: mustprogress uwtable
define linkonce_odr noundef ptr @_ZNK5boost10shared_ptrIN8QuantLib9FdmMesherEEptEv(ptr noundef nonnull align 8 dereferenceable(16) %this) #4 comdat align 2 {
entry:
  %this.addr = alloca ptr, align 8
  store ptr %this, ptr %this.addr, align 8, !tbaa !3
  %this1 = load ptr, ptr %this.addr, align 8
  %px = getelementptr inbounds nuw %"class.boost::shared_ptr", ptr %this1, i32 0, i32 0
  %0 = load ptr, ptr %px, align 8, !tbaa !28
  %cmp = icmp ne ptr %0, null
  %lnot = xor i1 %cmp, true
  %lnot2 = xor i1 %lnot, true
  %conv = zext i1 %lnot2 to i64
  %expval = call i64 @llvm.expect.i64(i64 %conv, i64 1)
  %tobool = icmp ne i64 %expval, 0
  br i1 %tobool, label %cond.true, label %cond.false

cond.true:                                        ; preds = %entry
  br label %cond.end

cond.false:                                       ; preds = %entry
  call void @_ZN5boost16assertion_failedEPKcS1_S1_l(ptr noundef @.str.8, ptr noundef @__PRETTY_FUNCTION__._ZNK5boost10shared_ptrIN8QuantLib9FdmMesherEEptEv, ptr noundef @.str.9, i64 noundef 784)
  br label %cond.end

cond.end:                                         ; preds = %cond.false, %cond.true
  %px3 = getelementptr inbounds nuw %"class.boost::shared_ptr", ptr %this1, i32 0, i32 0
  %1 = load ptr, ptr %px3, align 8, !tbaa !28
  ret ptr %1
}

; Function Attrs: mustprogress uwtable
define void @_ZNK8QuantLib18TripleBandLinearOp3addERKNS_5ArrayE(ptr dead_on_unwind noalias writable sret(%"class.QuantLib::TripleBandLinearOp") align 8 %agg.result, ptr noundef nonnull align 8 dereferenceable(80) %this, ptr noundef nonnull align 8 dereferenceable(16) %u) #4 align 2 personality ptr @__gxx_personality_v0 {
entry:
  %result.ptr = alloca ptr, align 8
  %this.addr = alloca ptr, align 8
  %u.addr = alloca ptr, align 8
  %nrvo = alloca i1, align 1
  %size = alloca i64, align 8
  %exn.slot = alloca ptr, align 8
  %ehselector.slot = alloca i32, align 4
  %i = alloca i64, align 8
  store ptr %agg.result, ptr %result.ptr, align 8
  store ptr %this, ptr %this.addr, align 8, !tbaa !3
  store ptr %u, ptr %u.addr, align 8, !tbaa !3
  %this1 = load ptr, ptr %this.addr, align 8
  store i1 false, ptr %nrvo, align 1
  %direction_ = getelementptr inbounds nuw %"class.QuantLib::TripleBandLinearOp", ptr %this1, i32 0, i32 1
  %0 = load i64, ptr %direction_, align 8, !tbaa !11
  %mesher_ = getelementptr inbounds nuw %"class.QuantLib::TripleBandLinearOp", ptr %this1, i32 0, i32 8
  call void @_ZN8QuantLib18TripleBandLinearOpC1EmRKN5boost10shared_ptrINS_9FdmMesherEEE(ptr noundef nonnull align 8 dereferenceable(80) %agg.result, i64 noundef %0, ptr noundef nonnull align 8 dereferenceable(16) %mesher_)
  call void @llvm.lifetime.start.p0(i64 8, ptr %size) #3
  %mesher_2 = getelementptr inbounds nuw %"class.QuantLib::TripleBandLinearOp", ptr %this1, i32 0, i32 8
  %call = invoke noundef ptr @_ZNK5boost10shared_ptrIN8QuantLib9FdmMesherEEptEv(ptr noundef nonnull align 8 dereferenceable(16) %mesher_2)
          to label %invoke.cont unwind label %lpad

invoke.cont:                                      ; preds = %entry
  %call4 = invoke noundef nonnull align 8 dereferenceable(16) ptr @_ZNK8QuantLib9FdmMesher6layoutEv(ptr noundef nonnull align 8 dereferenceable(24) %call)
          to label %invoke.cont3 unwind label %lpad

invoke.cont3:                                     ; preds = %invoke.cont
  %call6 = invoke noundef ptr @_ZNK5boost10shared_ptrIN8QuantLib17FdmLinearOpLayoutEEptEv(ptr noundef nonnull align 8 dereferenceable(16) %call4)
          to label %invoke.cont5 unwind label %lpad

invoke.cont5:                                     ; preds = %invoke.cont3
  %call8 = invoke noundef i64 @_ZNK8QuantLib17FdmLinearOpLayout4sizeEv(ptr noundef nonnull align 8 dereferenceable(56) %call6)
          to label %invoke.cont7 unwind label %lpad

invoke.cont7:                                     ; preds = %invoke.cont5
  store i64 %call8, ptr %size, align 8, !tbaa !7
  call void @llvm.lifetime.start.p0(i64 8, ptr %i) #3
  store i64 0, ptr %i, align 8, !tbaa !7
  br label %for.cond

for.cond:                                         ; preds = %for.inc, %invoke.cont7
  %1 = load i64, ptr %i, align 8, !tbaa !7
  %2 = load i64, ptr %size, align 8, !tbaa !7
  %cmp = icmp ult i64 %1, %2
  br i1 %cmp, label %for.body, label %for.cond.cleanup

for.cond.cleanup:                                 ; preds = %for.cond
  call void @llvm.lifetime.end.p0(i64 8, ptr %i) #3
  br label %for.end

lpad:                                             ; preds = %invoke.cont5, %invoke.cont3, %invoke.cont, %entry
  %3 = landingpad { ptr, i32 }
          cleanup
  %4 = extractvalue { ptr, i32 } %3, 0
  store ptr %4, ptr %exn.slot, align 8
  %5 = extractvalue { ptr, i32 } %3, 1
  store i32 %5, ptr %ehselector.slot, align 4
  br label %ehcleanup

for.body:                                         ; preds = %for.cond
  %lower_ = getelementptr inbounds nuw %"class.QuantLib::TripleBandLinearOp", ptr %this1, i32 0, i32 5
  %6 = load i64, ptr %i, align 8, !tbaa !7
  %call11 = invoke noundef nonnull align 8 dereferenceable(8) ptr @_ZNKSt10unique_ptrIA_dSt14default_deleteIS0_EEixEm(ptr noundef nonnull align 8 dereferenceable(8) %lower_, i64 noundef %6)
          to label %invoke.cont10 unwind label %lpad9

invoke.cont10:                                    ; preds = %for.body
  %7 = load double, ptr %call11, align 8, !tbaa !46
  %lower_12 = getelementptr inbounds nuw %"class.QuantLib::TripleBandLinearOp", ptr %agg.result, i32 0, i32 5
  %8 = load i64, ptr %i, align 8, !tbaa !7
  %call14 = invoke noundef nonnull align 8 dereferenceable(8) ptr @_ZNKSt10unique_ptrIA_dSt14default_deleteIS0_EEixEm(ptr noundef nonnull align 8 dereferenceable(8) %lower_12, i64 noundef %8)
          to label %invoke.cont13 unwind label %lpad9

invoke.cont13:                                    ; preds = %invoke.cont10
  store double %7, ptr %call14, align 8, !tbaa !46
  %upper_ = getelementptr inbounds nuw %"class.QuantLib::TripleBandLinearOp", ptr %this1, i32 0, i32 7
  %9 = load i64, ptr %i, align 8, !tbaa !7
  %call16 = invoke noundef nonnull align 8 dereferenceable(8) ptr @_ZNKSt10unique_ptrIA_dSt14default_deleteIS0_EEixEm(ptr noundef nonnull align 8 dereferenceable(8) %upper_, i64 noundef %9)
          to label %invoke.cont15 unwind label %lpad9

invoke.cont15:                                    ; preds = %invoke.cont13
  %10 = load double, ptr %call16, align 8, !tbaa !46
  %upper_17 = getelementptr inbounds nuw %"class.QuantLib::TripleBandLinearOp", ptr %agg.result, i32 0, i32 7
  %11 = load i64, ptr %i, align 8, !tbaa !7
  %call19 = invoke noundef nonnull align 8 dereferenceable(8) ptr @_ZNKSt10unique_ptrIA_dSt14default_deleteIS0_EEixEm(ptr noundef nonnull align 8 dereferenceable(8) %upper_17, i64 noundef %11)
          to label %invoke.cont18 unwind label %lpad9

invoke.cont18:                                    ; preds = %invoke.cont15
  store double %10, ptr %call19, align 8, !tbaa !46
  %diag_ = getelementptr inbounds nuw %"class.QuantLib::TripleBandLinearOp", ptr %this1, i32 0, i32 6
  %12 = load i64, ptr %i, align 8, !tbaa !7
  %call21 = invoke noundef nonnull align 8 dereferenceable(8) ptr @_ZNKSt10unique_ptrIA_dSt14default_deleteIS0_EEixEm(ptr noundef nonnull align 8 dereferenceable(8) %diag_, i64 noundef %12)
          to label %invoke.cont20 unwind label %lpad9

invoke.cont20:                                    ; preds = %invoke.cont18
  %13 = load double, ptr %call21, align 8, !tbaa !46
  %14 = load ptr, ptr %u.addr, align 8, !tbaa !3
  %15 = load i64, ptr %i, align 8, !tbaa !7
  %call23 = invoke noundef double @_ZNK8QuantLib5ArrayixEm(ptr noundef nonnull align 8 dereferenceable(16) %14, i64 noundef %15)
          to label %invoke.cont22 unwind label %lpad9

invoke.cont22:                                    ; preds = %invoke.cont20
  %add = fadd double %13, %call23
  %diag_24 = getelementptr inbounds nuw %"class.QuantLib::TripleBandLinearOp", ptr %agg.result, i32 0, i32 6
  %16 = load i64, ptr %i, align 8, !tbaa !7
  %call26 = invoke noundef nonnull align 8 dereferenceable(8) ptr @_ZNKSt10unique_ptrIA_dSt14default_deleteIS0_EEixEm(ptr noundef nonnull align 8 dereferenceable(8) %diag_24, i64 noundef %16)
          to label %invoke.cont25 unwind label %lpad9

invoke.cont25:                                    ; preds = %invoke.cont22
  store double %add, ptr %call26, align 8, !tbaa !46
  br label %for.inc

for.inc:                                          ; preds = %invoke.cont25
  %17 = load i64, ptr %i, align 8, !tbaa !7
  %inc = add i64 %17, 1
  store i64 %inc, ptr %i, align 8, !tbaa !7
  br label %for.cond, !llvm.loop !57

lpad9:                                            ; preds = %invoke.cont22, %invoke.cont20, %invoke.cont18, %invoke.cont15, %invoke.cont13, %invoke.cont10, %for.body
  %18 = landingpad { ptr, i32 }
          cleanup
  %19 = extractvalue { ptr, i32 } %18, 0
  store ptr %19, ptr %exn.slot, align 8
  %20 = extractvalue { ptr, i32 } %18, 1
  store i32 %20, ptr %ehselector.slot, align 4
  call void @llvm.lifetime.end.p0(i64 8, ptr %i) #3
  br label %ehcleanup

for.end:                                          ; preds = %for.cond.cleanup
  store i1 true, ptr %nrvo, align 1
  call void @llvm.lifetime.end.p0(i64 8, ptr %size) #3
  %nrvo.val = load i1, ptr %nrvo, align 1
  br i1 %nrvo.val, label %nrvo.skipdtor, label %nrvo.unused

ehcleanup:                                        ; preds = %lpad9, %lpad
  call void @llvm.lifetime.end.p0(i64 8, ptr %size) #3
  call void @_ZN8QuantLib18TripleBandLinearOpD2Ev(ptr noundef nonnull align 8 dereferenceable(80) %agg.result) #3
  br label %eh.resume

nrvo.unused:                                      ; preds = %for.end
  call void @_ZN8QuantLib18TripleBandLinearOpD2Ev(ptr noundef nonnull align 8 dereferenceable(80) %agg.result) #3
  br label %nrvo.skipdtor

nrvo.skipdtor:                                    ; preds = %nrvo.unused, %for.end
  ret void

eh.resume:                                        ; preds = %ehcleanup
  %exn = load ptr, ptr %exn.slot, align 8
  %sel = load i32, ptr %ehselector.slot, align 4
  %lpad.val = insertvalue { ptr, i32 } poison, ptr %exn, 0
  %lpad.val28 = insertvalue { ptr, i32 } %lpad.val, i32 %sel, 1
  resume { ptr, i32 } %lpad.val28
}