; Function Attrs: mustprogress uwtable
define void @_ZNK8QuantLib18TripleBandLinearOp3addERKNS_5ArrayE(ptr dead_on_unwind noalias writable sret(%"class.QuantLib::TripleBandLinearOp") align 8 %agg.result, ptr noundef nonnull align 8 dereferenceable(80) %this, ptr nocapture noundef nonnull readonly align 8 dereferenceable(16) %u) local_unnamed_addr #3 align 2 personality ptr @__gxx_personality_v0 {
entry:
  %direction_ = getelementptr inbounds nuw i8, ptr %this, i64 8
  %0 = load i64, ptr %direction_, align 8, !tbaa !6
  %mesher_ = getelementptr inbounds nuw i8, ptr %this, i64 64
  tail call void @_ZN8QuantLib18TripleBandLinearOpC1EmRKN5boost10shared_ptrINS_9FdmMesherEEE(ptr noundef nonnull align 8 dereferenceable(80) %agg.result, i64 noundef %0, ptr noundef nonnull align 8 dereferenceable(16) %mesher_)
  %1 = load ptr, ptr %mesher_, align 8, !tbaa !26
  %cmp.not.i = icmp eq ptr %1, null
  br i1 %cmp.not.i, label %cond.false.i, label %invoke.cont, !prof !27

cond.false.i:                                     ; preds = %entry
  invoke void @_ZN5boost16assertion_failedEPKcS1_S1_l(ptr noundef nonnull @.str.8, ptr noundef nonnull @__PRETTY_FUNCTION__._ZNK5boost10shared_ptrIN8QuantLib9FdmMesherEEptEv, ptr noundef nonnull @.str.9, i64 noundef 784)
          to label %.noexc unwind label %lpad

.noexc:                                           ; preds = %cond.false.i
  %.pre.i = load ptr, ptr %mesher_, align 8, !tbaa !26
  br label %invoke.cont

invoke.cont:                                      ; preds = %.noexc, %entry
  %2 = phi ptr [ %1, %entry ], [ %.pre.i, %.noexc ]
  %layout_.i = getelementptr inbounds nuw i8, ptr %2, i64 8
  %3 = load ptr, ptr %layout_.i, align 8, !tbaa !28
  %cmp.not.i9 = icmp eq ptr %3, null
  br i1 %cmp.not.i9, label %cond.false.i10, label %invoke.cont5, !prof !27

cond.false.i10:                                   ; preds = %invoke.cont
  invoke void @_ZN5boost16assertion_failedEPKcS1_S1_l(ptr noundef nonnull @.str.8, ptr noundef nonnull @__PRETTY_FUNCTION__._ZNK5boost10shared_ptrIN8QuantLib17FdmLinearOpLayoutEEptEv, ptr noundef nonnull @.str.9, i64 noundef 784)
          to label %.noexc12 unwind label %lpad

.noexc12:                                         ; preds = %cond.false.i10
  %.pre.i11 = load ptr, ptr %layout_.i, align 8, !tbaa !28
  br label %invoke.cont5

invoke.cont5:                                     ; preds = %.noexc12, %invoke.cont
  %4 = phi ptr [ %3, %invoke.cont ], [ %.pre.i11, %.noexc12 ]
  %5 = load i64, ptr %4, align 8, !tbaa !30
  %cmp19.not = icmp eq i64 %5, 0
  br i1 %cmp19.not, label %nrvo.skipdtor, label %for.body.lr.ph

for.body.lr.ph:                                   ; preds = %invoke.cont5
  %lower_ = getelementptr inbounds nuw i8, ptr %this, i64 40
  %6 = load ptr, ptr %lower_, align 8, !tbaa !36
  %lower_12 = getelementptr inbounds nuw i8, ptr %agg.result, i64 40
  %7 = load ptr, ptr %lower_12, align 8, !tbaa !36
  %upper_ = getelementptr inbounds nuw i8, ptr %this, i64 56
  %8 = load ptr, ptr %upper_, align 8, !tbaa !36
  %upper_17 = getelementptr inbounds nuw i8, ptr %agg.result, i64 56
  %9 = load ptr, ptr %upper_17, align 8, !tbaa !36
  %diag_ = getelementptr inbounds nuw i8, ptr %this, i64 48
  %10 = load ptr, ptr %diag_, align 8, !tbaa !36
  %11 = load ptr, ptr %u, align 8, !tbaa !36
  %diag_24 = getelementptr inbounds nuw i8, ptr %agg.result, i64 48
  %12 = load ptr, ptr %diag_24, align 8, !tbaa !36
  br label %for.body

lpad:                                             ; preds = %cond.false.i10, %cond.false.i
  %13 = landingpad { ptr, i32 }
          cleanup
  tail call void @_ZN8QuantLib18TripleBandLinearOpD2Ev(ptr noundef nonnull align 8 dereferenceable(80) %agg.result) #25
  resume { ptr, i32 } %13

for.body:                                         ; preds = %for.body.lr.ph, %for.body
  %i.020 = phi i64 [ 0, %for.body.lr.ph ], [ %inc, %for.body ]
  %arrayidx.i = getelementptr inbounds nuw double, ptr %6, i64 %i.020
  %14 = load double, ptr %arrayidx.i, align 8, !tbaa !56
  %arrayidx.i13 = getelementptr inbounds nuw double, ptr %7, i64 %i.020
  store double %14, ptr %arrayidx.i13, align 8, !tbaa !56
  %arrayidx.i14 = getelementptr inbounds nuw double, ptr %8, i64 %i.020
  %15 = load double, ptr %arrayidx.i14, align 8, !tbaa !56
  %arrayidx.i15 = getelementptr inbounds nuw double, ptr %9, i64 %i.020
  store double %15, ptr %arrayidx.i15, align 8, !tbaa !56
  %arrayidx.i16 = getelementptr inbounds nuw double, ptr %10, i64 %i.020
  %16 = load double, ptr %arrayidx.i16, align 8, !tbaa !56
  %arrayidx.i17 = getelementptr inbounds nuw double, ptr %11, i64 %i.020
  %17 = load double, ptr %arrayidx.i17, align 8, !tbaa !56
  %add = fadd double %16, %17
  %arrayidx.i18 = getelementptr inbounds nuw double, ptr %12, i64 %i.020
  store double %add, ptr %arrayidx.i18, align 8, !tbaa !56
  %inc = add nuw i64 %i.020, 1
  %exitcond.not = icmp eq i64 %inc, %5
  br i1 %exitcond.not, label %nrvo.skipdtor, label %for.body, !llvm.loop !71

nrvo.skipdtor:                                    ; preds = %for.body, %invoke.cont5
  ret void
}